target datalayout = "e-m:e-p270:32:32-p271:32:32-p272:64:64-i64:64-i128:128-f80:128-n8:16:32:64-S128"
target triple = "x86_64-pc-linux-gnu"

%struct.agxbuf = type { %union.anon }
%union.anon = type { %struct.anon }
%struct.anon = type { ptr, i64, i64, [7 x i8], i8 }

; Function Attrs: inlinehint nounwind uwtable
define internal void @agxbfree(ptr noundef %0) #5 {
  %2 = alloca ptr, align 8
  store ptr %0, ptr %2, align 8, !tbaa !26
  %3 = load ptr, ptr %2, align 8, !tbaa !26
  %4 = getelementptr inbounds nuw %struct.agxbuf, ptr %3, i32 0, i32 0
  %5 = getelementptr inbounds nuw %struct.anon, ptr %4, i32 0, i32 4
  %6 = load i8, ptr %5, align 1, !tbaa !27
  %7 = zext i8 %6 to i32
  %8 = icmp eq i32 %7, 255
  br i1 %8, label %9, label %14

9:                                                ; preds = %1
  %10 = load ptr, ptr %2, align 8, !tbaa !26
  %11 = getelementptr inbounds nuw %struct.agxbuf, ptr %10, i32 0, i32 0
  %12 = getelementptr inbounds nuw %struct.anon, ptr %11, i32 0, i32 0
  %13 = load ptr, ptr %12, align 8, !tbaa !27
  call void @free(ptr noundef %13) #13
  br label %14

14:                                               ; preds = %9, %1
  ret void
}