; Function Attrs: inlinehint mustprogress nounwind willreturn memory(argmem: readwrite, inaccessiblemem: readwrite) uwtable
define internal fastcc void @agxbfree(ptr captures(none) %.0.val, i8 %.31.val) unnamed_addr #5 {
  %1 = icmp eq i8 %.31.val, -1
  br i1 %1, label %2, label %3

2:                                                ; preds = %0
  tail call void @free(ptr noundef %.0.val) #18
  br label %3

3:                                                ; preds = %2, %0
  ret void
}